; Function Attrs: mustprogress nounwind uwtable
define internal void @_ZNSt23_Sp_counted_ptr_inplaceIN8facebook5velox9functions9prestosql12_GLOBAL__N_117ComparisonMatcherESaIvELN9__gnu_cxx12_Lock_policyE2EE10_M_disposeEv(ptr noundef nonnull align 8 dereferenceable(88) %this) unnamed_addr #2 align 2 personality ptr @__gxx_personality_v0 {
entry:
  %_M_impl.i = getelementptr inbounds i8, ptr %this, i64 16
  %vtable.i.i = load ptr, ptr %_M_impl.i, align 8
  %vfn.i.i = getelementptr inbounds i8, ptr %vtable.i.i, i64 8
  %0 = load ptr, ptr %vfn.i.i, align 8
  tail call void %0(ptr noundef nonnull align 8 dereferenceable(72) %_M_impl.i) #17
  ret void
}